; Function Attrs: nofree norecurse nosync nounwind memory(read, inaccessiblemem: none) uwtable
define range(i32 0, 2) i32 @Fra_BmcNodeIsConst(ptr noundef readonly captures(none) %0) #0 {
  %2 = getelementptr inbounds nuw i8, ptr %0, i64 40
  %3 = load ptr, ptr %2, align 8, !tbaa !3
  %4 = getelementptr inbounds nuw i8, ptr %3, i64 64
  %5 = load ptr, ptr %4, align 8, !tbaa !6
  %6 = load i32, ptr %5, align 8, !tbaa !22
  %7 = getelementptr inbounds nuw i8, ptr %5, i64 8
  %8 = load i32, ptr %7, align 8, !tbaa !24
  %9 = icmp slt i32 %6, %8
  br i1 %9, label %.lr.ph.i, label %Fra_BmcNodesAreEqual.exit

.lr.ph.i:                                         ; preds = %1
  %10 = getelementptr inbounds nuw i8, ptr %3, i64 8
  %11 = load ptr, ptr %10, align 8, !tbaa !33
  %12 = getelementptr i8, ptr %11, i64 48
  %.val = load ptr, ptr %12, align 8, !tbaa !34
  %13 = getelementptr i8, ptr %0, i64 36
  %.val.i = load i32, ptr %13, align 4, !tbaa !25
  %14 = getelementptr i8, ptr %5, i64 48
  %.val18.val.val21.i = load ptr, ptr %14, align 8, !tbaa !28
  %15 = mul nsw i32 %.val.i, %8
  %16 = getelementptr i8, ptr %.val, i64 36
  %.val19.i = load i32, ptr %16, align 4, !tbaa !25
  %17 = getelementptr i8, ptr %.val, i64 40
  %.val20.i = load ptr, ptr %17, align 8, !tbaa !3
  %18 = getelementptr i8, ptr %.val20.i, i64 64
  %.val20.val.i = load ptr, ptr %18, align 8, !tbaa !6
  %19 = getelementptr i8, ptr %.val20.val.i, i64 8
  %.val20.val.val.i = load i32, ptr %19, align 8, !tbaa !24
  %20 = getelementptr i8, ptr %.val20.val.i, i64 48
  %.val20.val.val22.i = load ptr, ptr %20, align 8, !tbaa !28
  %21 = mul nsw i32 %.val20.val.val.i, %.val19.i
  %22 = sext i32 %6 to i64
  %23 = sext i32 %21 to i64
  %24 = sext i32 %15 to i64
  %invariant.gep.i = getelementptr ptr, ptr %.val18.val.val21.i, i64 %24
  %invariant.gep31.i = getelementptr ptr, ptr %.val20.val.val22.i, i64 %23
  br label %25

25:                                               ; preds = %53, %.lr.ph.i
  %indvars.iv.i = phi i64 [ %22, %.lr.ph.i ], [ %indvars.iv.next.i, %53 ]
  %gep.i = getelementptr ptr, ptr %invariant.gep.i, i64 %indvars.iv.i
  %26 = load ptr, ptr %gep.i, align 8, !tbaa !29
  %27 = ptrtoint ptr %26 to i64
  %28 = and i64 %27, -2
  %gep32.i = getelementptr ptr, ptr %invariant.gep31.i, i64 %indvars.iv.i
  %29 = load ptr, ptr %gep32.i, align 8, !tbaa !29
  %30 = ptrtoint ptr %29 to i64
  %31 = and i64 %30, -2
  %32 = icmp eq i64 %28, %31
  br i1 %32, label %53, label %33

33:                                               ; preds = %25
  %34 = inttoptr i64 %31 to ptr
  %35 = inttoptr i64 %28 to ptr
  %36 = getelementptr i8, ptr %35, i64 36
  %.val23.i = load i32, ptr %36, align 4, !tbaa !25
  %37 = getelementptr i8, ptr %35, i64 40
  %.val24.i = load ptr, ptr %37, align 8, !tbaa !3
  %38 = getelementptr i8, ptr %.val24.i, i64 64
  %.val24.val.i = load ptr, ptr %38, align 8, !tbaa !6
  %39 = getelementptr i8, ptr %.val24.val.i, i64 56
  %.val24.val.val.i = load ptr, ptr %39, align 8, !tbaa !30
  %40 = sext i32 %.val23.i to i64
  %41 = getelementptr inbounds ptr, ptr %.val24.val.val.i, i64 %40
  %42 = load ptr, ptr %41, align 8, !tbaa !29
  %43 = ptrtoint ptr %42 to i64
  %44 = getelementptr i8, ptr %34, i64 36
  %.val25.i = load i32, ptr %44, align 4, !tbaa !25
  %45 = getelementptr i8, ptr %34, i64 40
  %.val26.i = load ptr, ptr %45, align 8, !tbaa !3
  %46 = getelementptr i8, ptr %.val26.i, i64 64
  %.val26.val.i = load ptr, ptr %46, align 8, !tbaa !6
  %47 = getelementptr i8, ptr %.val26.val.i, i64 56
  %.val26.val.val.i = load ptr, ptr %47, align 8, !tbaa !30
  %48 = sext i32 %.val25.i to i64
  %49 = getelementptr inbounds ptr, ptr %.val26.val.val.i, i64 %48
  %50 = load ptr, ptr %49, align 8, !tbaa !29
  %51 = ptrtoint ptr %50 to i64
  %52 = xor i64 %51, %43
  %.not.i = icmp ult i64 %52, 2
  br i1 %.not.i, label %53, label %Fra_BmcNodesAreEqual.exit

53:                                               ; preds = %33, %25
  %indvars.iv.next.i = add nsw i64 %indvars.iv.i, 1
  %lftr.wideiv.i = trunc i64 %indvars.iv.next.i to i32
  %exitcond.not.i = icmp eq i32 %8, %lftr.wideiv.i
  br i1 %exitcond.not.i, label %Fra_BmcNodesAreEqual.exit, label %25, !llvm.loop !31

Fra_BmcNodesAreEqual.exit:                        ; preds = %33, %53, %1
  %.015.i = phi i32 [ 1, %1 ], [ 0, %33 ], [ 1, %53 ]
  ret i32 %.015.i
}